target datalayout = "e-m:e-p270:32:32-p271:32:32-p272:64:64-i64:64-i128:128-f80:128-n8:16:32:64-S128"
target triple = "x86_64-unknown-linux-gnu"

; Function Attrs: mustprogress nounwind uwtable
define noundef float @_Z12cosine_decayllf(i64 noundef %step, i64 noundef %decay_steps, float noundef %minimum) #6 {
entry:
  %step.addr = alloca i64, align 8
  %decay_steps.addr = alloca i64, align 8
  %minimum.addr = alloca float, align 4
  %cosine_decay = alloca float, align 4
  %decay = alloca float, align 4
  store i64 %step, ptr %step.addr, align 8
  store i64 %decay_steps, ptr %decay_steps.addr, align 8
  store float %minimum, ptr %minimum.addr, align 4
  %0 = load i64, ptr %step.addr, align 8
  %1 = load i64, ptr %decay_steps.addr, align 8
  %cmp = icmp sgt i64 %0, %1
  br i1 %cmp, label %if.then, label %if.end

if.then:                                          ; preds = %entry
  %2 = load i64, ptr %decay_steps.addr, align 8
  store i64 %2, ptr %step.addr, align 8
  br label %if.end

if.end:                                           ; preds = %if.then, %entry
  %3 = load i64, ptr %step.addr, align 8
  %conv = sitofp i64 %3 to float
  %mul = fmul float 0x400921FB60000000, %conv
  %4 = load i64, ptr %decay_steps.addr, align 8
  %conv1 = sitofp i64 %4 to float
  %div = fdiv float %mul, %conv1
  %call = call float @cosf(float noundef %div) #3
  %add = fadd float 1.000000e+00, %call
  %mul2 = fmul float 5.000000e-01, %add
  store float %mul2, ptr %cosine_decay, align 4
  %5 = load float, ptr %minimum.addr, align 4
  %sub = fsub float 1.000000e+00, %5
  %6 = load float, ptr %cosine_decay, align 4
  %7 = load float, ptr %minimum.addr, align 4
  %8 = call float @llvm.fmuladd.f32(float %sub, float %6, float %7)
  store float %8, ptr %decay, align 4
  %9 = load float, ptr %decay, align 4
  ret float %9
}

; Function Attrs: mustprogress nounwind uwtable
define noundef float @_Z20cosine_decay_restartllff(i64 noundef %step, i64 noundef %decay_steps, float noundef %minimum, float noundef %restart_step_mult) #6 {
entry:
  %step.addr = alloca i64, align 8
  %decay_steps.addr = alloca i64, align 8
  %minimum.addr = alloca float, align 4
  %restart_step_mult.addr = alloca float, align 4
  store i64 %step, ptr %step.addr, align 8
  store i64 %decay_steps, ptr %decay_steps.addr, align 8
  store float %minimum, ptr %minimum.addr, align 4
  store float %restart_step_mult, ptr %restart_step_mult.addr, align 4
  br label %while.cond

while.cond:                                       ; preds = %while.body, %entry
  %0 = load i64, ptr %step.addr, align 8
  %1 = load i64, ptr %decay_steps.addr, align 8
  %cmp = icmp sgt i64 %0, %1
  br i1 %cmp, label %while.body, label %while.end

while.body:                                       ; preds = %while.cond
  %2 = load i64, ptr %decay_steps.addr, align 8
  %3 = load i64, ptr %step.addr, align 8
  %sub = sub nsw i64 %3, %2
  store i64 %sub, ptr %step.addr, align 8
  %4 = load float, ptr %restart_step_mult.addr, align 4
  %5 = load i64, ptr %decay_steps.addr, align 8
  %conv = sitofp i64 %5 to float
  %mul = fmul float %4, %conv
  %conv1 = fptosi float %mul to i64
  store i64 %conv1, ptr %decay_steps.addr, align 8
  br label %while.cond, !llvm.loop !34

while.end:                                        ; preds = %while.cond
  %6 = load i64, ptr %step.addr, align 8
  %7 = load i64, ptr %decay_steps.addr, align 8
  %8 = load float, ptr %minimum.addr, align 4
  %call = call noundef float @_Z12cosine_decayllf(i64 noundef %6, i64 noundef %7, float noundef %8)
  ret float %call
}

; Function Attrs: mustprogress nounwind uwtable
define noundef float @_Z17learning_schedulelllffffb(i64 noundef %step, i64 noundef %warmup_steps, i64 noundef %cos_decay_steps, float noundef %learning_rate, float noundef %overall_minimum, float noundef %cos_decay_minimum, float noundef %cos_decay_restart_step_mult, i1 noundef zeroext %enable_restart) #6 {
entry:
  %step.addr = alloca i64, align 8
  %warmup_steps.addr = alloca i64, align 8
  %cos_decay_steps.addr = alloca i64, align 8
  %learning_rate.addr = alloca float, align 4
  %overall_minimum.addr = alloca float, align 4
  %cos_decay_minimum.addr = alloca float, align 4
  %cos_decay_restart_step_mult.addr = alloca float, align 4
  %enable_restart.addr = alloca i8, align 1
  %result = alloca float, align 4
  %min = alloca float, align 4
  store i64 %step, ptr %step.addr, align 8
  store i64 %warmup_steps, ptr %warmup_steps.addr, align 8
  store i64 %cos_decay_steps, ptr %cos_decay_steps.addr, align 8
  store float %learning_rate, ptr %learning_rate.addr, align 4
  store float %overall_minimum, ptr %overall_minimum.addr, align 4
  store float %cos_decay_minimum, ptr %cos_decay_minimum.addr, align 4
  store float %cos_decay_restart_step_mult, ptr %cos_decay_restart_step_mult.addr, align 4
  %frombool = zext i1 %enable_restart to i8
  store i8 %frombool, ptr %enable_restart.addr, align 1
  %0 = load i64, ptr %step.addr, align 8
  %1 = load i64, ptr %warmup_steps.addr, align 8
  %cmp = icmp slt i64 %0, %1
  br i1 %cmp, label %cond.true, label %cond.false

cond.true:                                        ; preds = %entry
  %2 = load i64, ptr %step.addr, align 8
  %conv = sitofp i64 %2 to float
  %3 = load i64, ptr %warmup_steps.addr, align 8
  %conv1 = sitofp i64 %3 to float
  %div = fdiv float %conv, %conv1
  br label %cond.end5

cond.false:                                       ; preds = %entry
  %4 = load i8, ptr %enable_restart.addr, align 1
  %tobool = trunc i8 %4 to i1
  br i1 %tobool, label %cond.true2, label %cond.false3

cond.true2:                                       ; preds = %cond.false
  %5 = load i64, ptr %step.addr, align 8
  %6 = load i64, ptr %warmup_steps.addr, align 8
  %sub = sub nsw i64 %5, %6
  %7 = load i64, ptr %cos_decay_steps.addr, align 8
  %8 = load float, ptr %cos_decay_minimum.addr, align 4
  %9 = load float, ptr %cos_decay_restart_step_mult.addr, align 4
  %call = call noundef float @_Z20cosine_decay_restartllff(i64 noundef %sub, i64 noundef %7, float noundef %8, float noundef %9)
  br label %cond.end

cond.false3:                                      ; preds = %cond.false
  %10 = load i64, ptr %step.addr, align 8
  %11 = load i64, ptr %cos_decay_steps.addr, align 8
  %12 = load float, ptr %cos_decay_minimum.addr, align 4
  %call4 = call noundef float @_Z12cosine_decayllf(i64 noundef %10, i64 noundef %11, float noundef %12)
  br label %cond.end

cond.end:                                         ; preds = %cond.false3, %cond.true2
  %cond = phi float [ %call, %cond.true2 ], [ %call4, %cond.false3 ]
  br label %cond.end5

cond.end5:                                        ; preds = %cond.end, %cond.true
  %cond6 = phi float [ %div, %cond.true ], [ %cond, %cond.end ]
  store float %cond6, ptr %result, align 4
  %13 = load float, ptr %overall_minimum.addr, align 4
  %14 = load float, ptr %learning_rate.addr, align 4
  %div7 = fdiv float %13, %14
  store float %div7, ptr %min, align 4
  %15 = load float, ptr %min, align 4
  %16 = load float, ptr %result, align 4
  %17 = load float, ptr %min, align 4
  %sub8 = fsub float 1.000000e+00, %17
  %18 = call float @llvm.fmuladd.f32(float %16, float %sub8, float %15)
  store float %18, ptr %result, align 4
  %19 = load float, ptr %result, align 4
  ret float %19
}