; Function Attrs: mustprogress nofree nounwind memory(write) uwtable
define noundef float @_Z17learning_schedulelllffffb(i64 noundef %step, i64 noundef %warmup_steps, i64 noundef %cos_decay_steps, float noundef %learning_rate, float noundef %overall_minimum, float noundef %cos_decay_minimum, float noundef %cos_decay_restart_step_mult, i1 noundef zeroext %enable_restart) local_unnamed_addr #21 {
entry:
  %cmp = icmp slt i64 %step, %warmup_steps
  br i1 %cmp, label %cond.true, label %cond.false

cond.true:                                        ; preds = %entry
  %conv = sitofp i64 %step to float
  %conv1 = sitofp i64 %warmup_steps to float
  %div = fdiv float %conv, %conv1
  br label %cond.end5

cond.false:                                       ; preds = %entry
  br i1 %enable_restart, label %cond.true2, label %cond.false3

cond.true2:                                       ; preds = %cond.false
  %sub = sub nsw i64 %step, %warmup_steps
  %cmp6.i = icmp sgt i64 %sub, %cos_decay_steps
  br i1 %cmp6.i, label %while.body.i, label %_Z20cosine_decay_restartllff.exit

while.body.i:                                     ; preds = %cond.true2, %while.body.i
  %step.addr.08.i = phi i64 [ %sub.i, %while.body.i ], [ %sub, %cond.true2 ]
  %decay_steps.addr.07.i = phi i64 [ %conv1.i, %while.body.i ], [ %cos_decay_steps, %cond.true2 ]
  %sub.i = sub nsw i64 %step.addr.08.i, %decay_steps.addr.07.i
  %conv.i = sitofp i64 %decay_steps.addr.07.i to float
  %mul.i = fmul float %cos_decay_restart_step_mult, %conv.i
  %conv1.i = fptosi float %mul.i to i64
  %cmp.i = icmp sgt i64 %sub.i, %conv1.i
  br i1 %cmp.i, label %while.body.i, label %_Z20cosine_decay_restartllff.exit, !llvm.loop !42

_Z20cosine_decay_restartllff.exit:                ; preds = %while.body.i, %cond.true2
  %decay_steps.addr.0.lcssa.i = phi i64 [ %cos_decay_steps, %cond.true2 ], [ %conv1.i, %while.body.i ]
  %step.addr.0.lcssa.i = phi i64 [ %sub, %cond.true2 ], [ %sub.i, %while.body.i ]
  %conv.i.i = sitofp i64 %step.addr.0.lcssa.i to float
  %mul.i.i = fmul float %conv.i.i, 0x400921FB60000000
  %conv1.i.i = sitofp i64 %decay_steps.addr.0.lcssa.i to float
  %div.i.i = fdiv float %mul.i.i, %conv1.i.i
  %call.i.i = tail call float @cosf(float noundef %div.i.i) #36
  %add.i.i = fadd float %call.i.i, 1.000000e+00
  %mul2.i.i = fmul float %add.i.i, 5.000000e-01
  %sub.i.i = fsub float 1.000000e+00, %cos_decay_minimum
  %0 = tail call noundef float @llvm.fmuladd.f32(float %sub.i.i, float %mul2.i.i, float %cos_decay_minimum)
  br label %cond.end5

cond.false3:                                      ; preds = %cond.false
  %spec.select.i = tail call i64 @llvm.smin.i64(i64 %step, i64 %cos_decay_steps)
  %conv.i10 = sitofp i64 %spec.select.i to float
  %mul.i11 = fmul float %conv.i10, 0x400921FB60000000
  %conv1.i12 = sitofp i64 %cos_decay_steps to float
  %div.i = fdiv float %mul.i11, %conv1.i12
  %call.i = tail call float @cosf(float noundef %div.i) #36
  %add.i = fadd float %call.i, 1.000000e+00
  %mul2.i = fmul float %add.i, 5.000000e-01
  %sub.i13 = fsub float 1.000000e+00, %cos_decay_minimum
  %1 = tail call noundef float @llvm.fmuladd.f32(float %sub.i13, float %mul2.i, float %cos_decay_minimum)
  br label %cond.end5

cond.end5:                                        ; preds = %_Z20cosine_decay_restartllff.exit, %cond.false3, %cond.true
  %cond6 = phi float [ %div, %cond.true ], [ %0, %_Z20cosine_decay_restartllff.exit ], [ %1, %cond.false3 ]
  %div7 = fdiv float %overall_minimum, %learning_rate
  %sub8 = fsub float 1.000000e+00, %div7
  %2 = tail call float @llvm.fmuladd.f32(float %cond6, float %sub8, float %div7)
  ret float %2
}